; Function Attrs: nounwind uwtable
define internal void @ff_tx_rdft_r2r_mod2_float_c(ptr noundef readonly captures(none) %0, ptr noundef %1, ptr noundef %2, i64 %3) #3 {
  %5 = load i32, ptr %0, align 8, !tbaa !16
  %6 = ashr i32 %5, 1
  %7 = ashr i32 %5, 2
  %8 = add nsw i32 %5, 3
  %9 = ashr i32 %8, 2
  %10 = getelementptr inbounds nuw i8, ptr %0, i64 16
  %11 = load ptr, ptr %10, align 8, !tbaa !26
  %12 = getelementptr inbounds nuw i8, ptr %11, i64 32
  %13 = sext i32 %9 to i64
  %14 = getelementptr inbounds float, ptr %12, i64 %13
  %15 = getelementptr inbounds nuw i8, ptr %0, i64 40
  %16 = load ptr, ptr %15, align 8, !tbaa !4
  %17 = getelementptr inbounds nuw i8, ptr %0, i64 32
  %18 = load ptr, ptr %17, align 8, !tbaa !56
  tail call void %16(ptr noundef %18, ptr noundef %1, ptr noundef %2, i64 noundef 8) #16
  %19 = load float, ptr %1, align 4, !tbaa !49
  %20 = getelementptr inbounds nuw i8, ptr %1, i64 4
  %21 = load float, ptr %20, align 4, !tbaa !51
  %22 = fadd nsz float %19, %21
  store float %22, ptr %1, align 4, !tbaa !49
  %23 = load float, ptr %11, align 4, !tbaa !27
  %24 = fmul nsz float %22, %23
  store float %24, ptr %1, align 4, !tbaa !49
  %25 = getelementptr inbounds nuw i8, ptr %11, i64 4
  %26 = load float, ptr %25, align 4, !tbaa !27
  %27 = getelementptr inbounds nuw i8, ptr %11, i64 8
  %28 = load float, ptr %27, align 4, !tbaa !27
  %29 = sext i32 %7 to i64
  %30 = getelementptr inbounds %struct.AVComplexFloat, ptr %1, i64 %29
  %31 = load float, ptr %30, align 4, !tbaa !49
  %32 = fmul nsz float %28, %31
  store float %32, ptr %30, align 4, !tbaa !49
  %.sroa.525.0..sroa_idx = getelementptr inbounds nuw i8, ptr %30, i64 4
  %.sroa.525.0.copyload = load float, ptr %.sroa.525.0..sroa_idx, align 4, !tbaa !27
  %33 = add nsw i32 %7, 1
  %34 = sext i32 %33 to i64
  %35 = getelementptr inbounds %struct.AVComplexFloat, ptr %1, i64 %34
  %.sroa.020.0.copyload = load float, ptr %35, align 4, !tbaa !27
  %.sroa.522.0..sroa_idx = getelementptr inbounds nuw i8, ptr %35, i64 4
  %.sroa.522.0.copyload = load float, ptr %.sroa.522.0..sroa_idx, align 4, !tbaa !27
  %36 = getelementptr inbounds nuw i8, ptr %11, i64 16
  %37 = load float, ptr %36, align 4, !tbaa !27
  %38 = getelementptr inbounds nuw i8, ptr %11, i64 24
  %39 = load float, ptr %38, align 4, !tbaa !27
  %40 = getelementptr inbounds nuw i8, ptr %11, i64 28
  %41 = load float, ptr %40, align 4, !tbaa !27
  %42 = getelementptr inbounds float, ptr %12, i64 %29
  %43 = load float, ptr %42, align 4, !tbaa !27
  %44 = getelementptr inbounds float, ptr %14, i64 %29
  %45 = load float, ptr %44, align 4, !tbaa !27
  %.not93 = icmp slt i32 %7, 1
  br i1 %.not93, label %.preheader.._crit_edge_crit_edge, label %.lr.ph.preheader

.lr.ph.preheader:                                 ; preds = %4
  %46 = sext i32 %6 to i64
  %47 = zext nneg i32 %5 to i64
  %wide.trip.count = zext nneg i32 %33 to i64
  br label %.lr.ph

.preheader:                                       ; preds = %.lr.ph
  %.not = icmp eq i32 %7, 1
  br i1 %.not, label %.preheader.._crit_edge_crit_edge, label %.lr.ph96.preheader

.preheader.._crit_edge_crit_edge:                 ; preds = %4, %.preheader
  %.pre = sext i32 %6 to i64
  br label %._crit_edge

.lr.ph96.preheader:                               ; preds = %.preheader
  %48 = zext nneg i32 %5 to i64
  %49 = sext i32 %6 to i64
  %wide.trip.count102 = zext nneg i32 %7 to i64
  br label %.lr.ph96

.lr.ph:                                           ; preds = %.lr.ph.preheader, %.lr.ph
  %indvars.iv = phi i64 [ 1, %.lr.ph.preheader ], [ %indvars.iv.next, %.lr.ph ]
  %50 = getelementptr inbounds nuw %struct.AVComplexFloat, ptr %1, i64 %indvars.iv
  %.sroa.05.0.copyload = load float, ptr %50, align 4, !tbaa !27
  %.sroa.57.0..sroa_idx = getelementptr inbounds nuw i8, ptr %50, i64 4
  %.sroa.57.0.copyload = load float, ptr %.sroa.57.0..sroa_idx, align 4, !tbaa !27
  %51 = sub nsw i64 %46, %indvars.iv
  %52 = getelementptr inbounds %struct.AVComplexFloat, ptr %1, i64 %51
  %.sroa.0.0.copyload = load float, ptr %52, align 4, !tbaa !27
  %.sroa.5.0..sroa_idx = getelementptr inbounds nuw i8, ptr %52, i64 4
  %.sroa.5.0.copyload = load float, ptr %.sroa.5.0..sroa_idx, align 4, !tbaa !27
  %53 = load float, ptr %36, align 4, !tbaa !27
  %54 = fadd nsz float %.sroa.05.0.copyload, %.sroa.0.0.copyload
  %55 = fmul nsz float %54, %53
  %56 = load float, ptr %38, align 4, !tbaa !27
  %57 = fadd nsz float %.sroa.57.0.copyload, %.sroa.5.0.copyload
  %58 = fmul nsz float %57, %56
  %59 = load float, ptr %40, align 4, !tbaa !27
  %60 = fsub nsz float %.sroa.05.0.copyload, %.sroa.0.0.copyload
  %61 = fmul nsz float %60, %59
  %62 = getelementptr inbounds nuw float, ptr %12, i64 %indvars.iv
  %63 = load float, ptr %62, align 4, !tbaa !27
  %64 = getelementptr inbounds nuw float, ptr %14, i64 %indvars.iv
  %65 = load float, ptr %64, align 4, !tbaa !27
  %66 = fneg nsz float %65
  %67 = fmul nsz float %61, %66
  %68 = tail call nsz float @llvm.fmuladd.f32(float %58, float %63, float %67)
  %69 = fadd nsz float %55, %68
  %70 = getelementptr inbounds nuw float, ptr %1, i64 %indvars.iv
  store float %69, ptr %70, align 4, !tbaa !27
  %71 = fsub nsz float %55, %68
  %72 = sub nsw i64 %47, %indvars.iv
  %73 = getelementptr inbounds float, ptr %1, i64 %72
  store float %71, ptr %73, align 4, !tbaa !27
  %indvars.iv.next = add nuw nsw i64 %indvars.iv, 1
  %exitcond.not = icmp eq i64 %indvars.iv.next, %wide.trip.count
  br i1 %exitcond.not, label %.preheader, label %.lr.ph, !llvm.loop !142

._crit_edge:                                      ; preds = %.lr.ph96, %.preheader.._crit_edge_crit_edge
  %.pre-phi = phi i64 [ %.pre, %.preheader.._crit_edge_crit_edge ], [ %49, %.lr.ph96 ]
  %74 = fadd nsz float %32, %.sroa.020.0.copyload
  %75 = fmul nsz float %74, %37
  %76 = fadd nsz float %.sroa.525.0.copyload, %.sroa.522.0.copyload
  %77 = fmul nsz float %76, %39
  %78 = fsub nsz float %32, %.sroa.020.0.copyload
  %79 = fmul nsz float %78, %41
  %80 = fneg nsz float %45
  %81 = fmul nsz float %79, %80
  %82 = tail call nsz float @llvm.fmuladd.f32(float %77, float %43, float %81)
  %83 = fsub nsz float %75, %82
  %84 = fsub nsz float %19, %21
  %85 = fmul nsz float %84, %26
  %86 = getelementptr inbounds float, ptr %1, i64 %.pre-phi
  store float %85, ptr %86, align 4, !tbaa !27
  %87 = getelementptr inbounds nuw i8, ptr %11, i64 20
  %88 = load float, ptr %87, align 4, !tbaa !27
  %89 = fmul nsz float %83, %88
  %90 = getelementptr inbounds float, ptr %1, i64 %34
  store float %89, ptr %90, align 4, !tbaa !27
  ret void

.lr.ph96:                                         ; preds = %.lr.ph96.preheader, %.lr.ph96
  %indvars.iv99 = phi i64 [ 1, %.lr.ph96.preheader ], [ %indvars.iv.next100, %.lr.ph96 ]
  %91 = sub nsw i64 %48, %indvars.iv99
  %92 = getelementptr inbounds float, ptr %1, i64 %91
  %93 = load float, ptr %92, align 4, !tbaa !27
  %94 = sub nsw i64 %49, %indvars.iv99
  %95 = getelementptr inbounds float, ptr %1, i64 %94
  store float %93, ptr %95, align 4, !tbaa !27
  %indvars.iv.next100 = add nuw nsw i64 %indvars.iv99, 1
  %exitcond103.not = icmp eq i64 %indvars.iv.next100, %wide.trip.count102
  br i1 %exitcond103.not, label %._crit_edge, label %.lr.ph96, !llvm.loop !143
}